target datalayout = "e-m:e-p270:32:32-p271:32:32-p272:64:64-i64:64-i128:128-f80:128-n8:16:32:64-S128"
target triple = "x86_64-unknown-linux-gnu"

@linprebuf = internal global [20 x float] zeroinitializer, align 16
@rinprebuf = internal global [20 x float] zeroinitializer, align 16
@lstepbuf = internal global ptr null, align 8
@rstepbuf = internal global ptr null, align 8
@loutbuf = internal global ptr null, align 8
@routbuf = internal global ptr null, align 8
@B = internal global [12000 x i32] zeroinitializer, align 16
@totsamp = internal global i64 0, align 8
@lsum = internal global double 0.000000e+00, align 8
@rsum = internal global double 0.000000e+00, align 8
@A = internal global [12000 x i32] zeroinitializer, align 16

; Function Attrs: nounwind sspstrong uwtable
define internal float @analyzeResult(ptr noundef %Array, i64 noundef %len) #0 {
entry:
  %retval = alloca float, align 4
  %Array.addr = alloca ptr, align 8
  %len.addr = alloca i64, align 8
  %elems = alloca i32, align 4
  %upper = alloca i32, align 4
  %i = alloca i64, align 8
  store ptr %Array, ptr %Array.addr, align 8
  store i64 %len, ptr %len.addr, align 8
  store i32 0, ptr %elems, align 4
  store i64 0, ptr %i, align 8
  br label %for.cond

for.cond:                                         ; preds = %for.inc, %entry
  %0 = load i64, ptr %i, align 8
  %1 = load i64, ptr %len.addr, align 8
  %cmp = icmp ult i64 %0, %1
  br i1 %cmp, label %for.body, label %for.end

for.body:                                         ; preds = %for.cond
  %2 = load ptr, ptr %Array.addr, align 8
  %3 = load i64, ptr %i, align 8
  %arrayidx = getelementptr inbounds i32, ptr %2, i64 %3
  %4 = load i32, ptr %arrayidx, align 4
  %5 = load i32, ptr %elems, align 4
  %add = add i32 %5, %4
  store i32 %add, ptr %elems, align 4
  br label %for.inc

for.inc:                                          ; preds = %for.body
  %6 = load i64, ptr %i, align 8
  %inc = add i64 %6, 1
  store i64 %inc, ptr %i, align 8
  br label %for.cond, !llvm.loop !17

for.end:                                          ; preds = %for.cond
  %7 = load i32, ptr %elems, align 4
  %cmp1 = icmp eq i32 %7, 0
  br i1 %cmp1, label %if.then, label %if.end

if.then:                                          ; preds = %for.end
  store float -2.460100e+04, ptr %retval, align 4
  br label %return

if.end:                                           ; preds = %for.end
  %8 = load i32, ptr %elems, align 4
  %div = udiv i32 %8, 20
  %9 = load i32, ptr %elems, align 4
  %rem = urem i32 %9, 20
  %tobool = icmp ne i32 %rem, 0
  %cond = select i1 %tobool, i32 1, i32 0
  %add2 = add i32 %div, %cond
  store i32 %add2, ptr %upper, align 4
  %10 = load i64, ptr %len.addr, align 8
  store i64 %10, ptr %i, align 8
  br label %for.cond3

for.cond3:                                        ; preds = %if.end9, %if.end
  %11 = load i64, ptr %i, align 8
  %dec = add i64 %11, -1
  store i64 %dec, ptr %i, align 8
  %cmp4 = icmp ugt i64 %11, 0
  br i1 %cmp4, label %for.body5, label %for.end10

for.body5:                                        ; preds = %for.cond3
  %12 = load ptr, ptr %Array.addr, align 8
  %13 = load i64, ptr %i, align 8
  %arrayidx6 = getelementptr inbounds i32, ptr %12, i64 %13
  %14 = load i32, ptr %arrayidx6, align 4
  %15 = load i32, ptr %upper, align 4
  %sub = sub i32 %15, %14
  store i32 %sub, ptr %upper, align 4
  %cmp7 = icmp sle i32 %sub, 0
  br i1 %cmp7, label %if.then8, label %if.end9

if.then8:                                         ; preds = %for.body5
  br label %for.end10

if.end9:                                          ; preds = %for.body5
  br label %for.cond3, !llvm.loop !18

for.end10:                                        ; preds = %if.then8, %for.cond3
  %16 = load i64, ptr %i, align 8
  %conv = uitofp i64 %16 to float
  %div11 = fdiv float %conv, 1.000000e+02
  %sub12 = fsub float 0x4050347AE0000000, %div11
  store float %sub12, ptr %retval, align 4
  br label %return

return:                                           ; preds = %for.end10, %if.then
  %17 = load float, ptr %retval, align 4
  ret float %17
}

; Function Attrs: nounwind sspstrong uwtable
define dso_local float @GetTitleGain() #0 {
entry:
  %retval1 = alloca float, align 4
  %i = alloca i32, align 4
  %call = call float @analyzeResult(ptr noundef @A, i64 noundef 12000)
  store float %call, ptr %retval1, align 4
  store i32 0, ptr %i, align 4
  br label %for.cond

for.cond:                                         ; preds = %for.inc, %entry
  %0 = load i32, ptr %i, align 4
  %conv = zext i32 %0 to i64
  %cmp = icmp ult i64 %conv, 12000
  br i1 %cmp, label %for.body, label %for.end

for.body:                                         ; preds = %for.cond
  %1 = load i32, ptr %i, align 4
  %idxprom = zext i32 %1 to i64
  %arrayidx = getelementptr inbounds [12000 x i32], ptr @A, i64 0, i64 %idxprom
  %2 = load i32, ptr %arrayidx, align 4
  %3 = load i32, ptr %i, align 4
  %idxprom3 = zext i32 %3 to i64
  %arrayidx4 = getelementptr inbounds [12000 x i32], ptr @B, i64 0, i64 %idxprom3
  %4 = load i32, ptr %arrayidx4, align 4
  %add = add i32 %4, %2
  store i32 %add, ptr %arrayidx4, align 4
  %5 = load i32, ptr %i, align 4
  %idxprom5 = zext i32 %5 to i64
  %arrayidx6 = getelementptr inbounds [12000 x i32], ptr @A, i64 0, i64 %idxprom5
  store i32 0, ptr %arrayidx6, align 4
  br label %for.inc

for.inc:                                          ; preds = %for.body
  %6 = load i32, ptr %i, align 4
  %inc = add i32 %6, 1
  store i32 %inc, ptr %i, align 4
  br label %for.cond, !llvm.loop !15

for.end:                                          ; preds = %for.cond
  store i32 0, ptr %i, align 4
  br label %for.cond7

for.cond7:                                        ; preds = %for.inc23, %for.end
  %7 = load i32, ptr %i, align 4
  %cmp8 = icmp ult i32 %7, 10
  br i1 %cmp8, label %for.body10, label %for.end25

for.body10:                                       ; preds = %for.cond7
  %8 = load ptr, ptr @routbuf, align 8
  %9 = load i32, ptr %i, align 4
  %idxprom11 = zext i32 %9 to i64
  %arrayidx12 = getelementptr inbounds float, ptr %8, i64 %idxprom11
  store float 0.000000e+00, ptr %arrayidx12, align 4
  %10 = load ptr, ptr @rstepbuf, align 8
  %11 = load i32, ptr %i, align 4
  %idxprom13 = zext i32 %11 to i64
  %arrayidx14 = getelementptr inbounds float, ptr %10, i64 %idxprom13
  store float 0.000000e+00, ptr %arrayidx14, align 4
  %12 = load i32, ptr %i, align 4
  %idxprom15 = zext i32 %12 to i64
  %arrayidx16 = getelementptr inbounds [20 x float], ptr @rinprebuf, i64 0, i64 %idxprom15
  store float 0.000000e+00, ptr %arrayidx16, align 4
  %13 = load ptr, ptr @loutbuf, align 8
  %14 = load i32, ptr %i, align 4
  %idxprom17 = zext i32 %14 to i64
  %arrayidx18 = getelementptr inbounds float, ptr %13, i64 %idxprom17
  store float 0.000000e+00, ptr %arrayidx18, align 4
  %15 = load ptr, ptr @lstepbuf, align 8
  %16 = load i32, ptr %i, align 4
  %idxprom19 = zext i32 %16 to i64
  %arrayidx20 = getelementptr inbounds float, ptr %15, i64 %idxprom19
  store float 0.000000e+00, ptr %arrayidx20, align 4
  %17 = load i32, ptr %i, align 4
  %idxprom21 = zext i32 %17 to i64
  %arrayidx22 = getelementptr inbounds [20 x float], ptr @linprebuf, i64 0, i64 %idxprom21
  store float 0.000000e+00, ptr %arrayidx22, align 4
  br label %for.inc23

for.inc23:                                        ; preds = %for.body10
  %18 = load i32, ptr %i, align 4
  %inc24 = add i32 %18, 1
  store i32 %inc24, ptr %i, align 4
  br label %for.cond7, !llvm.loop !16

for.end25:                                        ; preds = %for.cond7
  store i64 0, ptr @totsamp, align 8
  store double 0.000000e+00, ptr @rsum, align 8
  store double 0.000000e+00, ptr @lsum, align 8
  %19 = load float, ptr %retval1, align 4
  ret float %19
}