; Function Attrs: nofree norecurse nosync nounwind sspstrong memory(readwrite, argmem: write, inaccessiblemem: none) uwtable
define dso_local float @GetTitleGain() local_unnamed_addr #8 {
entry:
  br label %for.body.i

for.body.i:                                       ; preds = %for.body.i, %entry
  %i.012.i = phi i64 [ 0, %entry ], [ %inc.i, %for.body.i ]
  %elems.011.i = phi i32 [ 0, %entry ], [ %add.i, %for.body.i ]
  %arrayidx.i = getelementptr inbounds nuw i32, ptr @A, i64 %i.012.i
  %0 = load i32, ptr %arrayidx.i, align 4
  %add.i = add i32 %0, %elems.011.i
  %inc.i = add nuw nsw i64 %i.012.i, 1
  %exitcond.not.i = icmp eq i64 %inc.i, 12000
  br i1 %exitcond.not.i, label %for.end.i, label %for.body.i, !llvm.loop !15

for.end.i:                                        ; preds = %for.body.i
  %cmp1.i = icmp eq i32 %add.i, 0
  br i1 %cmp1.i, label %analyzeResult.exit, label %if.end.i

if.end.i:                                         ; preds = %for.end.i
  %div.i = udiv i32 %add.i, 20
  %rem.i = urem i32 %add.i, 20
  %tobool.not.i = icmp ne i32 %rem.i, 0
  %cond.i = zext i1 %tobool.not.i to i32
  %add2.i = add nuw nsw i32 %div.i, %cond.i
  br label %for.cond3.i

for.cond3.i:                                      ; preds = %for.body5.i, %if.end.i
  %upper.0.i = phi i32 [ %add2.i, %if.end.i ], [ %sub.i, %for.body5.i ]
  %i.1.i = phi i64 [ 12000, %if.end.i ], [ %dec.i, %for.body5.i ]
  %cmp4.not.i = icmp eq i64 %i.1.i, 0
  br i1 %cmp4.not.i, label %for.end10.i, label %for.body5.i

for.body5.i:                                      ; preds = %for.cond3.i
  %dec.i = add nsw i64 %i.1.i, -1
  %arrayidx6.i = getelementptr inbounds i32, ptr @A, i64 %dec.i
  %1 = load i32, ptr %arrayidx6.i, align 4
  %sub.i = sub i32 %upper.0.i, %1
  %cmp7.i = icmp slt i32 %sub.i, 1
  br i1 %cmp7.i, label %for.end10.i, label %for.cond3.i, !llvm.loop !16

for.end10.i:                                      ; preds = %for.body5.i, %for.cond3.i
  %dec.lcssa.i = phi i64 [ %dec.i, %for.body5.i ], [ -1, %for.cond3.i ]
  %conv.i = uitofp i64 %dec.lcssa.i to float
  %div11.i = fdiv float %conv.i, 1.000000e+02
  %sub12.i = fsub float 0x4050347AE0000000, %div11.i
  br label %analyzeResult.exit

analyzeResult.exit:                               ; preds = %for.end.i, %for.end10.i
  %retval.0.i = phi float [ %sub12.i, %for.end10.i ], [ -2.460100e+04, %for.end.i ]
  br label %for.body

for.body:                                         ; preds = %analyzeResult.exit, %for.body
  %indvars.iv = phi i64 [ 0, %analyzeResult.exit ], [ %indvars.iv.next, %for.body ]
  %arrayidx = getelementptr inbounds nuw [12000 x i32], ptr @A, i64 0, i64 %indvars.iv
  %2 = load i32, ptr %arrayidx, align 4
  %arrayidx4 = getelementptr inbounds nuw [12000 x i32], ptr @B, i64 0, i64 %indvars.iv
  %3 = load i32, ptr %arrayidx4, align 4
  %add = add i32 %3, %2
  store i32 %add, ptr %arrayidx4, align 4
  store i32 0, ptr %arrayidx, align 4
  %indvars.iv.next = add nuw nsw i64 %indvars.iv, 1
  %exitcond.not = icmp eq i64 %indvars.iv.next, 12000
  br i1 %exitcond.not, label %for.body10.preheader, label %for.body, !llvm.loop !17

for.body10.preheader:                             ; preds = %for.body
  %4 = load ptr, ptr @routbuf, align 8
  %5 = load ptr, ptr @rstepbuf, align 8
  %6 = load ptr, ptr @loutbuf, align 8
  %7 = load ptr, ptr @lstepbuf, align 8
  br label %for.body10

for.body10:                                       ; preds = %for.body10.preheader, %for.body10
  %indvars.iv16 = phi i64 [ %indvars.iv.next17, %for.body10 ], [ 0, %for.body10.preheader ]
  %arrayidx12 = getelementptr inbounds nuw float, ptr %4, i64 %indvars.iv16
  store float 0.000000e+00, ptr %arrayidx12, align 4
  %arrayidx14 = getelementptr inbounds nuw float, ptr %5, i64 %indvars.iv16
  store float 0.000000e+00, ptr %arrayidx14, align 4
  %arrayidx16 = getelementptr inbounds nuw [20 x float], ptr @rinprebuf, i64 0, i64 %indvars.iv16
  store float 0.000000e+00, ptr %arrayidx16, align 4
  %arrayidx18 = getelementptr inbounds nuw float, ptr %6, i64 %indvars.iv16
  store float 0.000000e+00, ptr %arrayidx18, align 4
  %arrayidx20 = getelementptr inbounds nuw float, ptr %7, i64 %indvars.iv16
  store float 0.000000e+00, ptr %arrayidx20, align 4
  %arrayidx22 = getelementptr inbounds nuw [20 x float], ptr @linprebuf, i64 0, i64 %indvars.iv16
  store float 0.000000e+00, ptr %arrayidx22, align 4
  %indvars.iv.next17 = add nuw nsw i64 %indvars.iv16, 1
  %exitcond19.not = icmp eq i64 %indvars.iv.next17, 10
  br i1 %exitcond19.not, label %for.end25, label %for.body10, !llvm.loop !18

for.end25:                                        ; preds = %for.body10
  store i64 0, ptr @totsamp, align 8
  store double 0.000000e+00, ptr @rsum, align 8
  store double 0.000000e+00, ptr @lsum, align 8
  ret float %retval.0.i
}